; Function Attrs: mustprogress uwtable
define void @_ZN6google15SetEmailLoggingENS_11LogSeverityEPKc(i32 noundef %0, ptr noundef %1) local_unnamed_addr #0 personality ptr @__gxx_personality_v0 {
  %3 = tail call noundef i32 @pthread_mutex_lock(ptr noundef nonnull align 8 dereferenceable(40) @_ZN6googleL9log_mutexE) #49
  %.not.i.i.i = icmp eq i32 %3, 0
  br i1 %.not.i.i.i, label %_ZNSt10lock_guardISt5mutexEC2ERS0_.exit.i, label %4

4:                                                ; preds = %2
  tail call void @_ZSt20__throw_system_errori(i32 noundef %3) #52
  unreachable

_ZNSt10lock_guardISt5mutexEC2ERS0_.exit.i:        ; preds = %2
  store i32 %0, ptr @_ZN6google14LogDestination23email_logging_severity_E, align 4, !tbaa !97
  %5 = load i64, ptr getelementptr inbounds nuw (i8, ptr @_ZN6google14LogDestination10addresses_B5cxx11E, i64 8), align 8, !tbaa !48
  %6 = tail call noundef i64 @strlen(ptr noundef nonnull dereferenceable(1) %1) #49
  %7 = invoke noundef nonnull align 8 dereferenceable(32) ptr @_ZNSt7__cxx1112basic_stringIcSt11char_traitsIcESaIcEE10_M_replaceEmmPKcm(ptr noundef nonnull align 8 dereferenceable(32) @_ZN6google14LogDestination10addresses_B5cxx11E, i64 noundef 0, i64 noundef %5, ptr noundef nonnull %1, i64 noundef %6)
          to label %_ZN6google14LogDestination15SetEmailLoggingENS_11LogSeverityEPKc.exit unwind label %8

8:                                                ; preds = %_ZNSt10lock_guardISt5mutexEC2ERS0_.exit.i
  %9 = landingpad { ptr, i32 }
          cleanup
  %10 = tail call noundef i32 @pthread_mutex_unlock(ptr noundef nonnull align 8 dereferenceable(40) @_ZN6googleL9log_mutexE) #49
  resume { ptr, i32 } %9

_ZN6google14LogDestination15SetEmailLoggingENS_11LogSeverityEPKc.exit: ; preds = %_ZNSt10lock_guardISt5mutexEC2ERS0_.exit.i
  %11 = tail call noundef i32 @pthread_mutex_unlock(ptr noundef nonnull align 8 dereferenceable(40) @_ZN6googleL9log_mutexE) #49
  ret void
}